; Function Attrs: nounwind uwtable
define dso_local void @heap_toast_delete(ptr noundef %0, ptr noundef %1, i1 noundef zeroext %2) local_unnamed_addr #0 {
  %4 = alloca [1600 x i64], align 16
  %5 = alloca [1600 x i8], align 16
  call void @llvm.lifetime.start.p0(i64 12800, ptr nonnull %4) #8
  call void @llvm.lifetime.start.p0(i64 1600, ptr nonnull %5) #8
  %6 = getelementptr inbounds nuw i8, ptr %0, i64 64
  %7 = load ptr, ptr %6, align 8
  call void @heap_deform_tuple(ptr noundef %1, ptr noundef %7, ptr noundef nonnull %4, ptr noundef nonnull %5) #8
  call void @toast_delete_external(ptr noundef %0, ptr noundef nonnull %4, ptr noundef nonnull %5, i1 noundef zeroext %2) #8
  call void @llvm.lifetime.end.p0(i64 1600, ptr nonnull %5) #8
  call void @llvm.lifetime.end.p0(i64 12800, ptr nonnull %4) #8
  ret void
}